	.file	"fibo1.c"
	.section	.rodata
.LC0:
	.string	"%d\n"
	.text
	.globl	main
	.type	main, @function
main:
.LFB0:
	.cfi_startproc
	pushq	%rbp
	.cfi_def_cfa_offset 16
	.cfi_offset 6, -16
	movq	%rsp, %rbp
	.cfi_def_cfa_register 6
	subq	$16, %rsp
	movl	$0, -4(%rbp)
	jmp	.L2
.L3:
	movl	-4(%rbp), %eax
	movl	%eax, %edi
	movl	$0, %eax
	call	fibo
	movl	%eax, %esi
	movl	$.LC0, %edi
	movl	$0, %eax
	call	printf
	addl	$1, -4(%rbp)
.L2:
	cmpl	$9, -4(%rbp)
	jle	.L3
	movl	$0, %eax
	call	getchar
	leave
	.cfi_def_cfa 7, 8
	ret
	.cfi_endproc
.LFE0:
	.size	main, .-main
	.globl	fibo
	.type	fibo, @function
fibo:
.LFB1:
	.cfi_startproc
	pushq	%rbp
	.cfi_def_cfa_offset 16
	.cfi_offset 6, -16
	movq	%rsp, %rbp
	.cfi_def_cfa_register 6
	movl	%edi, -20(%rbp)
	cmpl	$0, -20(%rbp)
	jne	.L5
	movl	$0, %eax
	jmp	.L6
.L5:
	cmpl	$1, -20(%rbp)
	jne	.L7
	movl	$1, %eax
	jmp	.L6
.L7:
	movl	$0, -8(%rbp)
	movl	$1, -12(%rbp)
	movl	$2, -4(%rbp)
	jmp	.L8
.L9:
	movl	-8(%rbp), %eax
	movl	-12(%rbp), %edx
	addl	%edx, %eax
	movl	%eax, -16(%rbp)
	movl	-12(%rbp), %eax
	movl	%eax, -8(%rbp)
	movl	-16(%rbp), %eax
	movl	%eax, -12(%rbp)
	addl	$1, -4(%rbp)
.L8:
	movl	-4(%rbp), %eax
	cmpl	-20(%rbp), %eax
	jle	.L9
	movl	-16(%rbp), %eax
.L6:
	popq	%rbp
	.cfi_def_cfa 7, 8
	ret
	.cfi_endproc
.LFE1:
	.size	fibo, .-fibo
	.ident	"GCC: (Ubuntu 4.8.4-2ubuntu1~14.04) 4.8.4"
	.section	.note.GNU-stack,"",@progbits
